target datalayout = "e-m:e-p270:32:32-p271:32:32-p272:64:64-i64:64-i128:128-f80:128-n8:16:32:64-S128"
target triple = "x86_64-pc-linux-gnu"

%"class.icu_77::UnicodeString" = type { %"class.icu_77::Replaceable", %"union.icu_77::UnicodeString::StackBufferOrFields" }
%"class.icu_77::Replaceable" = type { %"class.icu_77::UObject" }
%"class.icu_77::UObject" = type { ptr }
%"union.icu_77::UnicodeString::StackBufferOrFields" = type { %struct.anon.0, [32 x i8] }
%struct.anon.0 = type { i16, i32, i32, ptr }
%"class.icu_77::RuleBasedNumberFormat" = type { %"class.icu_77::NumberFormat.base", ptr, ptr, i32, ptr, %"class.icu_77::Locale", ptr, ptr, ptr, ptr, i32, i8, ptr, ptr, %"class.icu_77::UnicodeString", i8, i8, i8, ptr }
%"class.icu_77::NumberFormat.base" = type <{ %"class.icu_77::Format", i8, [3 x i8], i32, i32, i32, i32, i8, i8, [4 x i16], [2 x i8], i32 }>
%"class.icu_77::Format" = type { %"class.icu_77::UObject", ptr, ptr }
%"class.icu_77::Locale" = type <{ %"class.icu_77::UObject", [12 x i8], [6 x i8], [4 x i8], [2 x i8], i32, [4 x i8], ptr, [157 x i8], [3 x i8], ptr, i8, [7 x i8] }>
%struct.anon = type { i16, [27 x i16] }

@_ZTVN6icu_777UObjectE = available_externally unnamed_addr constant { [5 x ptr] } { [5 x ptr] [ptr null, ptr @_ZTIN6icu_777UObjectE, ptr @_ZN6icu_777UObjectD1Ev, ptr @_ZN6icu_777UObjectD0Ev, ptr @_ZNK6icu_777UObject17getDynamicClassIDEv] }, align 8

; Function Attrs: inlinehint mustprogress nounwind uwtable
define linkonce_odr void @_ZN6icu_777UObjectC2Ev(ptr noundef nonnull align 8 dereferenceable(8) %0) unnamed_addr #4 comdat align 2 {
  %2 = alloca ptr, align 8
  store ptr %0, ptr %2, align 8, !tbaa !225
  %3 = load ptr, ptr %2, align 8
  store ptr getelementptr inbounds inrange(-16, 24) ({ [5 x ptr] }, ptr @_ZTVN6icu_777UObjectE, i32 0, i32 0, i32 2), ptr %3, align 8, !tbaa !10
  ret void
}

; Function Attrs: inlinehint mustprogress nounwind uwtable
define linkonce_odr void @_ZN6icu_7711ReplaceableC2Ev(ptr noundef nonnull align 8 dereferenceable(8) %0) unnamed_addr #4 comdat align 2 {
  %2 = alloca ptr, align 8
  store ptr %0, ptr %2, align 8, !tbaa !223
  %3 = load ptr, ptr %2, align 8
  call void @_ZN6icu_777UObjectC2Ev(ptr noundef nonnull align 8 dereferenceable(8) %3) #14
  store ptr getelementptr inbounds inrange(-16, 88) ({ [13 x ptr] }, ptr @_ZTVN6icu_7711ReplaceableE, i32 0, i32 0, i32 2), ptr %3, align 8, !tbaa !10
  ret void
}

; Function Attrs: inlinehint mustprogress uwtable
define linkonce_odr void @_ZN6icu_7713UnicodeStringC2Ev(ptr noundef nonnull align 8 dereferenceable(64) %0) unnamed_addr #6 comdat align 2 {
  %2 = alloca ptr, align 8
  store ptr %0, ptr %2, align 8, !tbaa !76
  %3 = load ptr, ptr %2, align 8
  call void @_ZN6icu_7711ReplaceableC2Ev(ptr noundef nonnull align 8 dereferenceable(8) %3)
  store ptr getelementptr inbounds inrange(-16, 88) ({ [13 x ptr] }, ptr @_ZTVN6icu_7713UnicodeStringE, i32 0, i32 0, i32 2), ptr %3, align 8, !tbaa !10
  %4 = getelementptr inbounds nuw %"class.icu_77::UnicodeString", ptr %3, i32 0, i32 1
  %5 = getelementptr inbounds nuw %struct.anon, ptr %4, i32 0, i32 0
  store i16 2, ptr %5, align 8, !tbaa !39
  ret void
}

; Function Attrs: mustprogress uwtable
define void @_ZN6icu_7721RuleBasedNumberFormatC2ERKNS_13UnicodeStringEPNS_16LocalizationInfoERKNS_6LocaleER11UParseErrorR10UErrorCode(ptr noundef nonnull align 8 dereferenceable(456) %0, ptr noundef nonnull align 8 dereferenceable(64) %1, ptr noundef %2, ptr noundef nonnull align 8 dereferenceable(217) %3, ptr noundef nonnull align 4 dereferenceable(72) %4, ptr noundef nonnull align 4 dereferenceable(4) %5) unnamed_addr #2 align 2 personality ptr @__gxx_personality_v0 {
  %7 = alloca ptr, align 8
  %8 = alloca ptr, align 8
  %9 = alloca ptr, align 8
  %10 = alloca ptr, align 8
  %11 = alloca ptr, align 8
  %12 = alloca ptr, align 8
  %13 = alloca ptr, align 8
  %14 = alloca i32, align 4
  store ptr %0, ptr %7, align 8, !tbaa !3
  store ptr %1, ptr %8, align 8, !tbaa !76
  store ptr %2, ptr %9, align 8, !tbaa !8
  store ptr %3, ptr %10, align 8, !tbaa !85
  store ptr %4, ptr %11, align 8, !tbaa !78
  store ptr %5, ptr %12, align 8, !tbaa !51
  %15 = load ptr, ptr %7, align 8
  call void @_ZN6icu_7712NumberFormatC2Ev(ptr noundef nonnull align 8 dereferenceable(60) %15)
  store ptr getelementptr inbounds inrange(-16, 408) ({ [53 x ptr] }, ptr @_ZTVN6icu_7721RuleBasedNumberFormatE, i32 0, i32 0, i32 2), ptr %15, align 8, !tbaa !10
  %16 = getelementptr inbounds nuw %"class.icu_77::RuleBasedNumberFormat", ptr %15, i32 0, i32 1
  store ptr null, ptr %16, align 8, !tbaa !87
  %17 = getelementptr inbounds nuw %"class.icu_77::RuleBasedNumberFormat", ptr %15, i32 0, i32 2
  store ptr null, ptr %17, align 8, !tbaa !104
  %18 = getelementptr inbounds nuw %"class.icu_77::RuleBasedNumberFormat", ptr %15, i32 0, i32 3
  store i32 0, ptr %18, align 8, !tbaa !105
  %19 = getelementptr inbounds nuw %"class.icu_77::RuleBasedNumberFormat", ptr %15, i32 0, i32 4
  store ptr null, ptr %19, align 8, !tbaa !106
  %20 = getelementptr inbounds nuw %"class.icu_77::RuleBasedNumberFormat", ptr %15, i32 0, i32 5
  %21 = load ptr, ptr %10, align 8, !tbaa !85
  invoke void @_ZN6icu_776LocaleC1ERKS0_(ptr noundef nonnull align 8 dereferenceable(217) %20, ptr noundef nonnull align 8 dereferenceable(217) %21)
          to label %22 unwind label %42

22:                                               ; preds = %6
  %23 = getelementptr inbounds nuw %"class.icu_77::RuleBasedNumberFormat", ptr %15, i32 0, i32 6
  store ptr null, ptr %23, align 8, !tbaa !107
  %24 = getelementptr inbounds nuw %"class.icu_77::RuleBasedNumberFormat", ptr %15, i32 0, i32 7
  store ptr null, ptr %24, align 8, !tbaa !108
  %25 = getelementptr inbounds nuw %"class.icu_77::RuleBasedNumberFormat", ptr %15, i32 0, i32 8
  store ptr null, ptr %25, align 8, !tbaa !109
  %26 = getelementptr inbounds nuw %"class.icu_77::RuleBasedNumberFormat", ptr %15, i32 0, i32 9
  store ptr null, ptr %26, align 8, !tbaa !110
  %27 = getelementptr inbounds nuw %"class.icu_77::RuleBasedNumberFormat", ptr %15, i32 0, i32 10
  store i32 7, ptr %27, align 8, !tbaa !111
  %28 = getelementptr inbounds nuw %"class.icu_77::RuleBasedNumberFormat", ptr %15, i32 0, i32 11
  store i8 0, ptr %28, align 4, !tbaa !112
  %29 = getelementptr inbounds nuw %"class.icu_77::RuleBasedNumberFormat", ptr %15, i32 0, i32 12
  store ptr null, ptr %29, align 8, !tbaa !113
  %30 = getelementptr inbounds nuw %"class.icu_77::RuleBasedNumberFormat", ptr %15, i32 0, i32 13
  store ptr null, ptr %30, align 8, !tbaa !114
  %31 = getelementptr inbounds nuw %"class.icu_77::RuleBasedNumberFormat", ptr %15, i32 0, i32 14
  invoke void @_ZN6icu_7713UnicodeStringC2Ev(ptr noundef nonnull align 8 dereferenceable(64) %31)
          to label %32 unwind label %46

32:                                               ; preds = %22
  %33 = getelementptr inbounds nuw %"class.icu_77::RuleBasedNumberFormat", ptr %15, i32 0, i32 15
  store i8 0, ptr %33, align 8, !tbaa !115
  %34 = getelementptr inbounds nuw %"class.icu_77::RuleBasedNumberFormat", ptr %15, i32 0, i32 16
  store i8 0, ptr %34, align 1, !tbaa !116
  %35 = getelementptr inbounds nuw %"class.icu_77::RuleBasedNumberFormat", ptr %15, i32 0, i32 17
  store i8 0, ptr %35, align 2, !tbaa !117
  %36 = getelementptr inbounds nuw %"class.icu_77::RuleBasedNumberFormat", ptr %15, i32 0, i32 18
  store ptr null, ptr %36, align 8, !tbaa !118
  %37 = load ptr, ptr %8, align 8, !tbaa !76
  %38 = load ptr, ptr %9, align 8, !tbaa !8
  %39 = load ptr, ptr %11, align 8, !tbaa !78
  %40 = load ptr, ptr %12, align 8, !tbaa !51
  invoke void @_ZN6icu_7721RuleBasedNumberFormat4initERKNS_13UnicodeStringEPNS_16LocalizationInfoER11UParseErrorR10UErrorCode(ptr noundef nonnull align 8 dereferenceable(456) %15, ptr noundef nonnull align 8 dereferenceable(64) %37, ptr noundef %38, ptr noundef nonnull align 4 dereferenceable(72) %39, ptr noundef nonnull align 4 dereferenceable(4) %40)
          to label %41 unwind label %50

41:                                               ; preds = %32
  ret void

42:                                               ; preds = %6
  %43 = landingpad { ptr, i32 }
          cleanup
  %44 = extractvalue { ptr, i32 } %43, 0
  store ptr %44, ptr %13, align 8
  %45 = extractvalue { ptr, i32 } %43, 1
  store i32 %45, ptr %14, align 4
  br label %55

46:                                               ; preds = %22
  %47 = landingpad { ptr, i32 }
          cleanup
  %48 = extractvalue { ptr, i32 } %47, 0
  store ptr %48, ptr %13, align 8
  %49 = extractvalue { ptr, i32 } %47, 1
  store i32 %49, ptr %14, align 4
  br label %54

50:                                               ; preds = %32
  %51 = landingpad { ptr, i32 }
          cleanup
  %52 = extractvalue { ptr, i32 } %51, 0
  store ptr %52, ptr %13, align 8
  %53 = extractvalue { ptr, i32 } %51, 1
  store i32 %53, ptr %14, align 4
  call void @_ZN6icu_7713UnicodeStringD1Ev(ptr noundef nonnull align 8 dereferenceable(64) %31) #14
  br label %54

54:                                               ; preds = %50, %46
  call void @_ZN6icu_776LocaleD1Ev(ptr noundef nonnull align 8 dereferenceable(217) %20) #14
  br label %55

55:                                               ; preds = %54, %42
  call void @_ZN6icu_7712NumberFormatD2Ev(ptr noundef nonnull align 8 dereferenceable(60) %15) #14
  br label %56

56:                                               ; preds = %55
  %57 = load ptr, ptr %13, align 8
  %58 = load i32, ptr %14, align 4
  %59 = insertvalue { ptr, i32 } poison, ptr %57, 0
  %60 = insertvalue { ptr, i32 } %59, i32 %58, 1
  resume { ptr, i32 } %60
}